target datalayout = "e-m:e-p270:32:32-p271:32:32-p272:64:64-i64:64-i128:128-f80:128-n8:16:32:64-S128"
target triple = "x86_64-pc-linux-gnu"

%struct.pkcs7_st = type { ptr, i64, i32, i32, ptr, %union.anon, %struct.PKCS7_CTX_st }
%union.anon = type { ptr }
%struct.PKCS7_CTX_st = type { ptr, ptr }

@PKCS7_it.local_it = internal constant { i8, [7 x i8], i64, ptr, i64, ptr, i64, ptr } { i8 6, [7 x i8] zeroinitializer, i64 16, ptr @PKCS7_seq_tt, i64 2, ptr @PKCS7_aux, i64 56, ptr @.str }, align 8
@.str.1 = private unnamed_addr constant [35 x i8] c"../openssl/crypto/pkcs7/pk7_asn1.c\00", align 1

; Function Attrs: nounwind uwtable
define void @PKCS7_free(ptr noundef %0) #0 {
  %2 = alloca ptr, align 8
  store ptr %0, ptr %2, align 8, !tbaa !16
  %3 = load ptr, ptr %2, align 8, !tbaa !16
  %4 = icmp ne ptr %3, null
  br i1 %4, label %5, label %12

5:                                                ; preds = %1
  %6 = load ptr, ptr %2, align 8, !tbaa !16
  %7 = getelementptr inbounds nuw %struct.pkcs7_st, ptr %6, i32 0, i32 6
  %8 = getelementptr inbounds nuw %struct.PKCS7_CTX_st, ptr %7, i32 0, i32 1
  %9 = load ptr, ptr %8, align 8, !tbaa !23
  call void @CRYPTO_free(ptr noundef %9, ptr noundef @.str.1, i32 noundef 116)
  %10 = load ptr, ptr %2, align 8, !tbaa !16
  %11 = call ptr @PKCS7_it()
  call void @ASN1_item_free(ptr noundef %10, ptr noundef %11)
  br label %12

12:                                               ; preds = %5, %1
  ret void
}

; Function Attrs: nounwind uwtable
define ptr @PKCS7_it() #0 {
  ret ptr @PKCS7_it.local_it
}

; Function Attrs: nounwind uwtable
define ptr @PKCS7_new_ex(ptr noundef %0, ptr noundef %1) #0 {
  %3 = alloca ptr, align 8
  %4 = alloca ptr, align 8
  %5 = alloca ptr, align 8
  store ptr %0, ptr %3, align 8, !tbaa !12
  store ptr %1, ptr %4, align 8, !tbaa !14
  call void @llvm.lifetime.start.p0(i64 8, ptr %5) #3
  %6 = call ptr @PKCS7_it()
  %7 = load ptr, ptr %3, align 8, !tbaa !12
  %8 = load ptr, ptr %4, align 8, !tbaa !14
  %9 = call ptr @ASN1_item_new_ex(ptr noundef %6, ptr noundef %7, ptr noundef %8)
  store ptr %9, ptr %5, align 8, !tbaa !16
  %10 = load ptr, ptr %5, align 8, !tbaa !16
  %11 = icmp ne ptr %10, null
  br i1 %11, label %12, label %37

12:                                               ; preds = %2
  %13 = load ptr, ptr %3, align 8, !tbaa !12
  %14 = load ptr, ptr %5, align 8, !tbaa !16
  %15 = getelementptr inbounds nuw %struct.pkcs7_st, ptr %14, i32 0, i32 6
  %16 = getelementptr inbounds nuw %struct.PKCS7_CTX_st, ptr %15, i32 0, i32 0
  store ptr %13, ptr %16, align 8, !tbaa !18
  %17 = load ptr, ptr %5, align 8, !tbaa !16
  %18 = getelementptr inbounds nuw %struct.pkcs7_st, ptr %17, i32 0, i32 6
  %19 = getelementptr inbounds nuw %struct.PKCS7_CTX_st, ptr %18, i32 0, i32 1
  store ptr null, ptr %19, align 8, !tbaa !23
  %20 = load ptr, ptr %4, align 8, !tbaa !14
  %21 = icmp ne ptr %20, null
  br i1 %21, label %22, label %36

22:                                               ; preds = %12
  %23 = load ptr, ptr %4, align 8, !tbaa !14
  %24 = call noalias ptr @CRYPTO_strdup(ptr noundef %23, ptr noundef @.str.1, i32 noundef 103)
  %25 = load ptr, ptr %5, align 8, !tbaa !16
  %26 = getelementptr inbounds nuw %struct.pkcs7_st, ptr %25, i32 0, i32 6
  %27 = getelementptr inbounds nuw %struct.PKCS7_CTX_st, ptr %26, i32 0, i32 1
  store ptr %24, ptr %27, align 8, !tbaa !23
  %28 = load ptr, ptr %5, align 8, !tbaa !16
  %29 = getelementptr inbounds nuw %struct.pkcs7_st, ptr %28, i32 0, i32 6
  %30 = getelementptr inbounds nuw %struct.PKCS7_CTX_st, ptr %29, i32 0, i32 1
  %31 = load ptr, ptr %30, align 8, !tbaa !23
  %32 = icmp eq ptr %31, null
  br i1 %32, label %33, label %35

33:                                               ; preds = %22
  %34 = load ptr, ptr %5, align 8, !tbaa !16
  call void @PKCS7_free(ptr noundef %34)
  store ptr null, ptr %5, align 8, !tbaa !16
  br label %35

35:                                               ; preds = %33, %22
  br label %36

36:                                               ; preds = %35, %12
  br label %37

37:                                               ; preds = %36, %2
  %38 = load ptr, ptr %5, align 8, !tbaa !16
  call void @llvm.lifetime.end.p0(i64 8, ptr %5) #3
  ret ptr %38
}