; Function Attrs: nounwind uwtable
define ptr @PKCS7_new_ex(ptr noundef %0, ptr noundef %1) local_unnamed_addr #1 {
  %3 = tail call ptr @ASN1_item_new_ex(ptr noundef nonnull @PKCS7_it.local_it, ptr noundef %0, ptr noundef %1) #3
  %.not = icmp eq ptr %3, null
  br i1 %.not, label %10, label %4

4:                                                ; preds = %2
  %5 = getelementptr inbounds nuw i8, ptr %3, i64 40
  store ptr %0, ptr %5, align 8, !tbaa !8
  %6 = getelementptr inbounds nuw i8, ptr %3, i64 48
  store ptr null, ptr %6, align 8, !tbaa !16
  %.not14 = icmp eq ptr %1, null
  br i1 %.not14, label %10, label %7

7:                                                ; preds = %4
  %8 = tail call noalias ptr @CRYPTO_strdup(ptr noundef nonnull %1, ptr noundef nonnull @.str.1, i32 noundef 103) #3
  store ptr %8, ptr %6, align 8, !tbaa !16
  %9 = icmp eq ptr %8, null
  br i1 %9, label %PKCS7_free.exit, label %10

PKCS7_free.exit:                                  ; preds = %7
  tail call void @CRYPTO_free(ptr noundef null, ptr noundef nonnull @.str.1, i32 noundef 116) #3
  tail call void @ASN1_item_free(ptr noundef nonnull %3, ptr noundef nonnull @PKCS7_it.local_it) #3
  br label %10

10:                                               ; preds = %4, %PKCS7_free.exit, %7, %2
  %.0 = phi ptr [ null, %PKCS7_free.exit ], [ %3, %7 ], [ %3, %4 ], [ null, %2 ]
  ret ptr %.0
}